; Function Attrs: nounwind uwtable
define ptr @l_Lean_PrettyPrinter_Delaborator_SubExpr_withNaryArg___rarg___lambda__2(ptr noundef %0, ptr noundef %1, ptr noundef %2, ptr noundef %3, ptr noundef %4) local_unnamed_addr #0 {
lean_dec.exit:
  %5 = getelementptr i8, ptr %0, i64 8
  %.val = load i64, ptr %5, align 8, !tbaa !13
  %6 = shl i64 %.val, 1
  %7 = or disjoint i64 %6, 1
  %8 = inttoptr i64 %7 to ptr
  %9 = tail call ptr @l_Lean_SubExpr_Pos_pushNaryArg(ptr noundef nonnull %8, ptr noundef %1, ptr noundef %4) #5
  tail call void @lean_inc_heartbeat() #5
  %10 = tail call noalias ptr @mi_malloc_small(i64 noundef 48) #5
  %11 = icmp eq ptr %10, null
  br i1 %11, label %12, label %lean_alloc_closure.exit

12:                                               ; preds = %lean_dec.exit
  tail call void @lean_internal_panic_out_of_memory() #6
  unreachable

lean_alloc_closure.exit:                          ; preds = %lean_dec.exit
  %13 = getelementptr inbounds nuw i8, ptr %10, i64 4
  store i32 1, ptr %10, align 4, !tbaa !9
  store i32 -184549328, ptr %13, align 4
  %14 = getelementptr inbounds nuw i8, ptr %10, i64 8
  store ptr @l_Lean_PrettyPrinter_Delaborator_SubExpr_withNaryArg___rarg___lambda__1___boxed, ptr %14, align 8, !tbaa !5
  %15 = getelementptr inbounds nuw i8, ptr %10, i64 16
  store i16 4, ptr %15, align 8, !tbaa !17
  %16 = getelementptr inbounds nuw i8, ptr %10, i64 18
  store i16 3, ptr %16, align 2, !tbaa !17
  %17 = getelementptr inbounds nuw i8, ptr %10, i64 24
  store ptr %0, ptr %17, align 8, !tbaa !5
  %18 = getelementptr inbounds nuw i8, ptr %10, i64 32
  store ptr %1, ptr %18, align 8, !tbaa !5
  %19 = getelementptr inbounds nuw i8, ptr %10, i64 40
  store ptr %9, ptr %19, align 8, !tbaa !5
  %20 = tail call ptr @lean_apply_3(ptr noundef %2, ptr noundef nonnull inttoptr (i64 1 to ptr), ptr noundef nonnull %10, ptr noundef %3) #5
  ret ptr %20
}